target datalayout = "e-m:e-p270:32:32-p271:32:32-p272:64:64-i64:64-i128:128-f80:128-n8:16:32:64-S128"
target triple = "x86_64-pc-linux-gnu"

%"struct.duckdb_hll::robj" = type { ptr }
%"struct.duckdb_hll::hllhdr" = type { [4 x i8], i8, [3 x i8], [8 x i8], [1 x i8] }
%"struct.duckdb_hll::sdshdr8" = type { i8, i8, i8, [1 x i8] }
%"struct.duckdb_hll::sdshdr16" = type { i16, i16, i8, [1 x i8] }
%"struct.duckdb_hll::sdshdr32" = type <{ i32, i32, i8, [1 x i8] }>
%"struct.duckdb_hll::sdshdr64" = type <{ i64, i64, i8, [1 x i8] }>

; Function Attrs: inlinehint mustprogress nounwind uwtable
define internal noundef i64 @_ZN10duckdb_hllL6sdslenEPc(ptr noundef %0) #3 {
  %2 = alloca i64, align 8
  %3 = alloca ptr, align 8
  %4 = alloca i8, align 1
  %5 = alloca i32, align 4
  store ptr %0, ptr %3, align 8, !tbaa !11
  call void @llvm.lifetime.start.p0(i64 1, ptr %4) #10
  %6 = load ptr, ptr %3, align 8, !tbaa !11
  %7 = getelementptr inbounds i8, ptr %6, i64 -1
  %8 = load i8, ptr %7, align 1, !tbaa !15
  store i8 %8, ptr %4, align 1, !tbaa !15
  %9 = load i8, ptr %4, align 1, !tbaa !15
  %10 = zext i8 %9 to i32
  %11 = and i32 %10, 7
  switch i32 %11, label %40 [
    i32 0, label %12
    i32 1, label %17
    i32 2, label %23
    i32 3, label %29
    i32 4, label %35
  ]

12:                                               ; preds = %1
  %13 = load i8, ptr %4, align 1, !tbaa !15
  %14 = zext i8 %13 to i32
  %15 = ashr i32 %14, 3
  %16 = sext i32 %15 to i64
  store i64 %16, ptr %2, align 8
  store i32 1, ptr %5, align 4
  br label %41

17:                                               ; preds = %1
  %18 = load ptr, ptr %3, align 8, !tbaa !11
  %19 = getelementptr inbounds i8, ptr %18, i64 -4
  %20 = getelementptr inbounds nuw %"struct.duckdb_hll::sdshdr8", ptr %19, i32 0, i32 0
  %21 = load i8, ptr %20, align 1, !tbaa !33
  %22 = zext i8 %21 to i64
  store i64 %22, ptr %2, align 8
  store i32 1, ptr %5, align 4
  br label %41

23:                                               ; preds = %1
  %24 = load ptr, ptr %3, align 8, !tbaa !11
  %25 = getelementptr inbounds i8, ptr %24, i64 -6
  %26 = getelementptr inbounds nuw %"struct.duckdb_hll::sdshdr16", ptr %25, i32 0, i32 0
  %27 = load i16, ptr %26, align 1, !tbaa !35
  %28 = zext i16 %27 to i64
  store i64 %28, ptr %2, align 8
  store i32 1, ptr %5, align 4
  br label %41

29:                                               ; preds = %1
  %30 = load ptr, ptr %3, align 8, !tbaa !11
  %31 = getelementptr inbounds i8, ptr %30, i64 -10
  %32 = getelementptr inbounds nuw %"struct.duckdb_hll::sdshdr32", ptr %31, i32 0, i32 0
  %33 = load i32, ptr %32, align 1, !tbaa !38
  %34 = zext i32 %33 to i64
  store i64 %34, ptr %2, align 8
  store i32 1, ptr %5, align 4
  br label %41

35:                                               ; preds = %1
  %36 = load ptr, ptr %3, align 8, !tbaa !11
  %37 = getelementptr inbounds i8, ptr %36, i64 -18
  %38 = getelementptr inbounds nuw %"struct.duckdb_hll::sdshdr64", ptr %37, i32 0, i32 0
  %39 = load i64, ptr %38, align 1, !tbaa !40
  store i64 %39, ptr %2, align 8
  store i32 1, ptr %5, align 4
  br label %41

40:                                               ; preds = %1
  store i64 0, ptr %2, align 8
  store i32 1, ptr %5, align 4
  br label %41

41:                                               ; preds = %40, %35, %29, %23, %17, %12
  call void @llvm.lifetime.end.p0(i64 1, ptr %4) #10
  %42 = load i64, ptr %2, align 8
  ret i64 %42
}

; Function Attrs: mustprogress uwtable
define noundef i32 @_ZN10duckdb_hll8hllMergeEPhPNS_4robjE(ptr noundef %0, ptr noundef %1) #2 {
  %3 = alloca i32, align 4
  %4 = alloca ptr, align 8
  %5 = alloca ptr, align 8
  %6 = alloca ptr, align 8
  %7 = alloca i32, align 4
  %8 = alloca i8, align 1
  %9 = alloca ptr, align 8
  %10 = alloca i64, align 8
  %11 = alloca i64, align 8
  %12 = alloca i64, align 8
  %13 = alloca i64, align 8
  %14 = alloca i64, align 8
  %15 = alloca ptr, align 8
  %16 = alloca ptr, align 8
  %17 = alloca i64, align 8
  %18 = alloca i64, align 8
  %19 = alloca i32, align 4
  store ptr %0, ptr %4, align 8, !tbaa !11
  store ptr %1, ptr %5, align 8, !tbaa !22
  call void @llvm.lifetime.start.p0(i64 8, ptr %6) #10
  %20 = load ptr, ptr %5, align 8, !tbaa !22
  %21 = getelementptr inbounds nuw %"struct.duckdb_hll::robj", ptr %20, i32 0, i32 0
  %22 = load ptr, ptr %21, align 8, !tbaa !24
  store ptr %22, ptr %6, align 8, !tbaa !26
  call void @llvm.lifetime.start.p0(i64 4, ptr %7) #10
  %23 = load ptr, ptr %6, align 8, !tbaa !26
  %24 = getelementptr inbounds nuw %"struct.duckdb_hll::hllhdr", ptr %23, i32 0, i32 1
  %25 = load i8, ptr %24, align 1, !tbaa !28
  %26 = zext i8 %25 to i32
  %27 = icmp eq i32 %26, 0
  br i1 %27, label %28, label %90

28:                                               ; preds = %2
  call void @llvm.lifetime.start.p0(i64 1, ptr %8) #10
  store i32 0, ptr %7, align 4, !tbaa !7
  br label %29

29:                                               ; preds = %86, %28
  %30 = load i32, ptr %7, align 4, !tbaa !7
  %31 = icmp slt i32 %30, 4096
  br i1 %31, label %32, label %89

32:                                               ; preds = %29
  br label %33

33:                                               ; preds = %32
  call void @llvm.lifetime.start.p0(i64 8, ptr %9) #10
  %34 = load ptr, ptr %6, align 8, !tbaa !26
  %35 = getelementptr inbounds nuw %"struct.duckdb_hll::hllhdr", ptr %34, i32 0, i32 4
  %36 = getelementptr inbounds [1 x i8], ptr %35, i64 0, i64 0
  %37 = getelementptr inbounds i8, ptr %36, i64 1
  store ptr %37, ptr %9, align 8, !tbaa !11
  call void @llvm.lifetime.start.p0(i64 8, ptr %10) #10
  %38 = load i32, ptr %7, align 4, !tbaa !7
  %39 = mul nsw i32 %38, 6
  %40 = sdiv i32 %39, 8
  %41 = sext i32 %40 to i64
  store i64 %41, ptr %10, align 8, !tbaa !9
  call void @llvm.lifetime.start.p0(i64 8, ptr %11) #10
  %42 = load i32, ptr %7, align 4, !tbaa !7
  %43 = mul nsw i32 %42, 6
  %44 = and i32 %43, 7
  %45 = sext i32 %44 to i64
  store i64 %45, ptr %11, align 8, !tbaa !9
  call void @llvm.lifetime.start.p0(i64 8, ptr %12) #10
  %46 = load i64, ptr %11, align 8, !tbaa !9
  %47 = sub i64 8, %46
  store i64 %47, ptr %12, align 8, !tbaa !9
  call void @llvm.lifetime.start.p0(i64 8, ptr %13) #10
  %48 = load ptr, ptr %9, align 8, !tbaa !11
  %49 = load i64, ptr %10, align 8, !tbaa !9
  %50 = getelementptr inbounds nuw i8, ptr %48, i64 %49
  %51 = load i8, ptr %50, align 1, !tbaa !15
  %52 = zext i8 %51 to i64
  store i64 %52, ptr %13, align 8, !tbaa !9
  call void @llvm.lifetime.start.p0(i64 8, ptr %14) #10
  %53 = load ptr, ptr %9, align 8, !tbaa !11
  %54 = load i64, ptr %10, align 8, !tbaa !9
  %55 = add i64 %54, 1
  %56 = getelementptr inbounds nuw i8, ptr %53, i64 %55
  %57 = load i8, ptr %56, align 1, !tbaa !15
  %58 = zext i8 %57 to i64
  store i64 %58, ptr %14, align 8, !tbaa !9
  %59 = load i64, ptr %13, align 8, !tbaa !9
  %60 = load i64, ptr %11, align 8, !tbaa !9
  %61 = lshr i64 %59, %60
  %62 = load i64, ptr %14, align 8, !tbaa !9
  %63 = load i64, ptr %12, align 8, !tbaa !9
  %64 = shl i64 %62, %63
  %65 = or i64 %61, %64
  %66 = and i64 %65, 63
  %67 = trunc i64 %66 to i8
  store i8 %67, ptr %8, align 1, !tbaa !15
  call void @llvm.lifetime.end.p0(i64 8, ptr %14) #10
  call void @llvm.lifetime.end.p0(i64 8, ptr %13) #10
  call void @llvm.lifetime.end.p0(i64 8, ptr %12) #10
  call void @llvm.lifetime.end.p0(i64 8, ptr %11) #10
  call void @llvm.lifetime.end.p0(i64 8, ptr %10) #10
  call void @llvm.lifetime.end.p0(i64 8, ptr %9) #10
  br label %68

68:                                               ; preds = %33
  br label %69

69:                                               ; preds = %68
  %70 = load i8, ptr %8, align 1, !tbaa !15
  %71 = zext i8 %70 to i32
  %72 = load ptr, ptr %4, align 8, !tbaa !11
  %73 = load i32, ptr %7, align 4, !tbaa !7
  %74 = sext i32 %73 to i64
  %75 = getelementptr inbounds i8, ptr %72, i64 %74
  %76 = load i8, ptr %75, align 1, !tbaa !15
  %77 = zext i8 %76 to i32
  %78 = icmp sgt i32 %71, %77
  br i1 %78, label %79, label %85

79:                                               ; preds = %69
  %80 = load i8, ptr %8, align 1, !tbaa !15
  %81 = load ptr, ptr %4, align 8, !tbaa !11
  %82 = load i32, ptr %7, align 4, !tbaa !7
  %83 = sext i32 %82 to i64
  %84 = getelementptr inbounds i8, ptr %81, i64 %83
  store i8 %80, ptr %84, align 1, !tbaa !15
  br label %85

85:                                               ; preds = %79, %69
  br label %86

86:                                               ; preds = %85
  %87 = load i32, ptr %7, align 4, !tbaa !7
  %88 = add nsw i32 %87, 1
  store i32 %88, ptr %7, align 4, !tbaa !7
  br label %29, !llvm.loop !51

89:                                               ; preds = %29
  call void @llvm.lifetime.end.p0(i64 1, ptr %8) #10
  br label %202

90:                                               ; preds = %2
  call void @llvm.lifetime.start.p0(i64 8, ptr %15) #10
  %91 = load ptr, ptr %5, align 8, !tbaa !22
  %92 = getelementptr inbounds nuw %"struct.duckdb_hll::robj", ptr %91, i32 0, i32 0
  %93 = load ptr, ptr %92, align 8, !tbaa !24
  store ptr %93, ptr %15, align 8, !tbaa !11
  call void @llvm.lifetime.start.p0(i64 8, ptr %16) #10
  %94 = load ptr, ptr %15, align 8, !tbaa !11
  %95 = load ptr, ptr %5, align 8, !tbaa !22
  %96 = getelementptr inbounds nuw %"struct.duckdb_hll::robj", ptr %95, i32 0, i32 0
  %97 = load ptr, ptr %96, align 8, !tbaa !24
  %98 = call noundef i64 @_ZN10duckdb_hllL6sdslenEPc(ptr noundef %97)
  %99 = getelementptr inbounds nuw i8, ptr %94, i64 %98
  store ptr %99, ptr %16, align 8, !tbaa !11
  call void @llvm.lifetime.start.p0(i64 8, ptr %17) #10
  call void @llvm.lifetime.start.p0(i64 8, ptr %18) #10
  %100 = load ptr, ptr %15, align 8, !tbaa !11
  %101 = getelementptr inbounds nuw i8, ptr %100, i64 17
  store ptr %101, ptr %15, align 8, !tbaa !11
  store i32 0, ptr %7, align 4, !tbaa !7
  br label %102

102:                                              ; preds = %193, %90
  %103 = load ptr, ptr %15, align 8, !tbaa !11
  %104 = load ptr, ptr %16, align 8, !tbaa !11
  %105 = icmp ult ptr %103, %104
  br i1 %105, label %106, label %194

106:                                              ; preds = %102
  %107 = load ptr, ptr %15, align 8, !tbaa !11
  %108 = load i8, ptr %107, align 1, !tbaa !15
  %109 = zext i8 %108 to i32
  %110 = and i32 %109, 192
  %111 = icmp eq i32 %110, 0
  br i1 %111, label %112, label %126

112:                                              ; preds = %106
  %113 = load ptr, ptr %15, align 8, !tbaa !11
  %114 = load i8, ptr %113, align 1, !tbaa !15
  %115 = zext i8 %114 to i32
  %116 = and i32 %115, 63
  %117 = add nsw i32 %116, 1
  %118 = sext i32 %117 to i64
  store i64 %118, ptr %17, align 8, !tbaa !9
  %119 = load i64, ptr %17, align 8, !tbaa !9
  %120 = load i32, ptr %7, align 4, !tbaa !7
  %121 = sext i32 %120 to i64
  %122 = add nsw i64 %121, %119
  %123 = trunc i64 %122 to i32
  store i32 %123, ptr %7, align 4, !tbaa !7
  %124 = load ptr, ptr %15, align 8, !tbaa !11
  %125 = getelementptr inbounds nuw i8, ptr %124, i32 1
  store ptr %125, ptr %15, align 8, !tbaa !11
  br label %193

126:                                              ; preds = %106
  %127 = load ptr, ptr %15, align 8, !tbaa !11
  %128 = load i8, ptr %127, align 1, !tbaa !15
  %129 = zext i8 %128 to i32
  %130 = and i32 %129, 192
  %131 = icmp eq i32 %130, 64
  br i1 %131, label %132, label %152

132:                                              ; preds = %126
  %133 = load ptr, ptr %15, align 8, !tbaa !11
  %134 = load i8, ptr %133, align 1, !tbaa !15
  %135 = zext i8 %134 to i32
  %136 = and i32 %135, 63
  %137 = shl i32 %136, 8
  %138 = load ptr, ptr %15, align 8, !tbaa !11
  %139 = getelementptr inbounds i8, ptr %138, i64 1
  %140 = load i8, ptr %139, align 1, !tbaa !15
  %141 = zext i8 %140 to i32
  %142 = or i32 %137, %141
  %143 = add nsw i32 %142, 1
  %144 = sext i32 %143 to i64
  store i64 %144, ptr %17, align 8, !tbaa !9
  %145 = load i64, ptr %17, align 8, !tbaa !9
  %146 = load i32, ptr %7, align 4, !tbaa !7
  %147 = sext i32 %146 to i64
  %148 = add nsw i64 %147, %145
  %149 = trunc i64 %148 to i32
  store i32 %149, ptr %7, align 4, !tbaa !7
  %150 = load ptr, ptr %15, align 8, !tbaa !11
  %151 = getelementptr inbounds i8, ptr %150, i64 2
  store ptr %151, ptr %15, align 8, !tbaa !11
  br label %192

152:                                              ; preds = %126
  %153 = load ptr, ptr %15, align 8, !tbaa !11
  %154 = load i8, ptr %153, align 1, !tbaa !15
  %155 = zext i8 %154 to i32
  %156 = and i32 %155, 3
  %157 = add nsw i32 %156, 1
  %158 = sext i32 %157 to i64
  store i64 %158, ptr %17, align 8, !tbaa !9
  %159 = load ptr, ptr %15, align 8, !tbaa !11
  %160 = load i8, ptr %159, align 1, !tbaa !15
  %161 = zext i8 %160 to i32
  %162 = ashr i32 %161, 2
  %163 = and i32 %162, 31
  %164 = add nsw i32 %163, 1
  %165 = sext i32 %164 to i64
  store i64 %165, ptr %18, align 8, !tbaa !9
  br label %166

166:                                              ; preds = %186, %152
  %167 = load i64, ptr %17, align 8, !tbaa !9
  %168 = add nsw i64 %167, -1
  store i64 %168, ptr %17, align 8, !tbaa !9
  %169 = icmp ne i64 %167, 0
  br i1 %169, label %170, label %189

170:                                              ; preds = %166
  %171 = load i64, ptr %18, align 8, !tbaa !9
  %172 = load ptr, ptr %4, align 8, !tbaa !11
  %173 = load i32, ptr %7, align 4, !tbaa !7
  %174 = sext i32 %173 to i64
  %175 = getelementptr inbounds i8, ptr %172, i64 %174
  %176 = load i8, ptr %175, align 1, !tbaa !15
  %177 = zext i8 %176 to i64
  %178 = icmp sgt i64 %171, %177
  br i1 %178, label %179, label %186

179:                                              ; preds = %170
  %180 = load i64, ptr %18, align 8, !tbaa !9
  %181 = trunc i64 %180 to i8
  %182 = load ptr, ptr %4, align 8, !tbaa !11
  %183 = load i32, ptr %7, align 4, !tbaa !7
  %184 = sext i32 %183 to i64
  %185 = getelementptr inbounds i8, ptr %182, i64 %184
  store i8 %181, ptr %185, align 1, !tbaa !15
  br label %186

186:                                              ; preds = %179, %170
  %187 = load i32, ptr %7, align 4, !tbaa !7
  %188 = add nsw i32 %187, 1
  store i32 %188, ptr %7, align 4, !tbaa !7
  br label %166, !llvm.loop !52

189:                                              ; preds = %166
  %190 = load ptr, ptr %15, align 8, !tbaa !11
  %191 = getelementptr inbounds nuw i8, ptr %190, i32 1
  store ptr %191, ptr %15, align 8, !tbaa !11
  br label %192

192:                                              ; preds = %189, %132
  br label %193

193:                                              ; preds = %192, %112
  br label %102, !llvm.loop !53

194:                                              ; preds = %102
  %195 = load i32, ptr %7, align 4, !tbaa !7
  %196 = icmp ne i32 %195, 4096
  br i1 %196, label %197, label %198

197:                                              ; preds = %194
  store i32 -1, ptr %3, align 4
  store i32 1, ptr %19, align 4
  br label %199

198:                                              ; preds = %194
  store i32 0, ptr %19, align 4
  br label %199

199:                                              ; preds = %198, %197
  call void @llvm.lifetime.end.p0(i64 8, ptr %18) #10
  call void @llvm.lifetime.end.p0(i64 8, ptr %17) #10
  call void @llvm.lifetime.end.p0(i64 8, ptr %16) #10
  call void @llvm.lifetime.end.p0(i64 8, ptr %15) #10
  %200 = load i32, ptr %19, align 4
  switch i32 %200, label %203 [
    i32 0, label %201
  ]

201:                                              ; preds = %199
  br label %202

202:                                              ; preds = %201, %89
  store i32 0, ptr %3, align 4
  store i32 1, ptr %19, align 4
  br label %203

203:                                              ; preds = %202, %199
  call void @llvm.lifetime.end.p0(i64 4, ptr %7) #10
  call void @llvm.lifetime.end.p0(i64 8, ptr %6) #10
  %204 = load i32, ptr %3, align 4
  ret i32 %204
}