; Function Attrs: mustprogress nofree norecurse nosync nounwind memory(read, argmem: readwrite, inaccessiblemem: none) uwtable
define noundef range(i32 -1, 1) i32 @_ZN10duckdb_hll8hllMergeEPhPNS_4robjE(ptr noundef captures(none) %0, ptr noundef readonly captures(none) %1) local_unnamed_addr #13 {
  %3 = load ptr, ptr %1, align 8, !tbaa !14
  %4 = getelementptr inbounds nuw i8, ptr %3, i64 4
  %5 = load i8, ptr %4, align 1, !tbaa !26
  %6 = icmp eq i8 %5, 0
  br i1 %6, label %.preheader, label %25

.preheader:                                       ; preds = %2
  %7 = getelementptr inbounds nuw i8, ptr %3, i64 17
  br label %8

8:                                                ; preds = %.preheader, %24
  %indvars.iv67 = phi i64 [ 0, %.preheader ], [ %indvars.iv.next68, %24 ]
  %9 = trunc i64 %indvars.iv67 to i32
  %10 = mul i32 %9, 6
  %11 = lshr i32 %10, 3
  %12 = zext nneg i32 %11 to i64
  %13 = getelementptr inbounds nuw i8, ptr %7, i64 %12
  %14 = load i8, ptr %13, align 1, !tbaa !9
  %15 = getelementptr inbounds nuw i8, ptr %13, i64 1
  %16 = load i8, ptr %15, align 1, !tbaa !9
  %17 = trunc i32 %10 to i8
  %18 = tail call i8 @llvm.fshr.i8(i8 %16, i8 %14, i8 %17)
  %19 = and i8 %18, 63
  %20 = getelementptr inbounds nuw i8, ptr %0, i64 %indvars.iv67
  %21 = load i8, ptr %20, align 1, !tbaa !9
  %22 = icmp ugt i8 %19, %21
  br i1 %22, label %23, label %24

23:                                               ; preds = %8
  store i8 %19, ptr %20, align 1, !tbaa !9
  br label %24

24:                                               ; preds = %8, %23
  %indvars.iv.next68 = add nuw nsw i64 %indvars.iv67, 1
  %exitcond.not = icmp eq i64 %indvars.iv.next68, 4096
  br i1 %exitcond.not, label %.loopexit, label %8, !llvm.loop !37

25:                                               ; preds = %2
  %26 = getelementptr inbounds i8, ptr %3, i64 -1
  %27 = load i8, ptr %26, align 1, !tbaa !9
  %28 = zext i8 %27 to i32
  %29 = and i32 %28, 7
  switch i32 %29, label %._crit_edge.thread [
    i32 0, label %30
    i32 1, label %33
    i32 2, label %37
    i32 3, label %41
    i32 4, label %45
  ]

30:                                               ; preds = %25
  %31 = lshr i32 %28, 3
  %32 = zext nneg i32 %31 to i64
  br label %_ZN10duckdb_hllL6sdslenEPc.exit

33:                                               ; preds = %25
  %34 = getelementptr inbounds i8, ptr %3, i64 -4
  %35 = load i8, ptr %34, align 1, !tbaa !17
  %36 = zext i8 %35 to i64
  br label %_ZN10duckdb_hllL6sdslenEPc.exit

37:                                               ; preds = %25
  %38 = getelementptr inbounds i8, ptr %3, i64 -6
  %39 = load i16, ptr %38, align 1, !tbaa !19
  %40 = zext i16 %39 to i64
  br label %_ZN10duckdb_hllL6sdslenEPc.exit

41:                                               ; preds = %25
  %42 = getelementptr inbounds i8, ptr %3, i64 -10
  %43 = load i32, ptr %42, align 1, !tbaa !22
  %44 = zext i32 %43 to i64
  br label %_ZN10duckdb_hllL6sdslenEPc.exit

45:                                               ; preds = %25
  %46 = getelementptr inbounds i8, ptr %3, i64 -18
  %47 = load i64, ptr %46, align 1, !tbaa !24
  br label %_ZN10duckdb_hllL6sdslenEPc.exit

_ZN10duckdb_hllL6sdslenEPc.exit:                  ; preds = %30, %33, %37, %41, %45
  %.0.i = phi i64 [ %47, %45 ], [ %44, %41 ], [ %40, %37 ], [ %36, %33 ], [ %32, %30 ]
  %48 = getelementptr inbounds nuw i8, ptr %3, i64 %.0.i
  %49 = icmp samesign ugt i64 %.0.i, 17
  br i1 %49, label %.lr.ph.preheader, label %._crit_edge.thread

.lr.ph.preheader:                                 ; preds = %_ZN10duckdb_hllL6sdslenEPc.exit
  %50 = getelementptr inbounds nuw i8, ptr %3, i64 17
  br label %.lr.ph

.lr.ph:                                           ; preds = %.lr.ph.preheader, %83
  %.15564 = phi i32 [ %.2, %83 ], [ 0, %.lr.ph.preheader ]
  %.05663 = phi ptr [ %84, %83 ], [ %50, %.lr.ph.preheader ]
  %51 = load i8, ptr %.05663, align 1, !tbaa !9
  %52 = zext i8 %51 to i32
  %trunc = and i8 %51, -64
  switch i8 %trunc, label %65 [
    i8 0, label %53
    i8 64, label %56
  ]

53:                                               ; preds = %.lr.ph
  %54 = add i32 %.15564, 1
  %55 = add i32 %54, %52
  br label %83

56:                                               ; preds = %.lr.ph
  %57 = shl nuw nsw i32 %52, 8
  %58 = and i32 %57, 16128
  %59 = getelementptr inbounds nuw i8, ptr %.05663, i64 1
  %60 = load i8, ptr %59, align 1, !tbaa !9
  %61 = zext i8 %60 to i32
  %62 = add i32 %.15564, 1
  %63 = add i32 %62, %58
  %64 = add i32 %63, %61
  br label %83

65:                                               ; preds = %.lr.ph
  %66 = and i32 %52, 3
  %67 = lshr i32 %52, 2
  %68 = and i32 %67, 31
  %69 = zext nneg i32 %66 to i64
  %70 = trunc nuw nsw i32 %68 to i8
  %71 = add nuw nsw i8 %70, 1
  %72 = sext i32 %.15564 to i64
  br label %73

73:                                               ; preds = %65, %79
  %indvars.iv = phi i64 [ %72, %65 ], [ %indvars.iv.next, %79 ]
  %74 = phi i64 [ %69, %65 ], [ %80, %79 ]
  %75 = getelementptr inbounds i8, ptr %0, i64 %indvars.iv
  %76 = load i8, ptr %75, align 1, !tbaa !9
  %77 = zext i8 %76 to i32
  %.not61 = icmp samesign ult i32 %68, %77
  br i1 %.not61, label %79, label %78

78:                                               ; preds = %73
  store i8 %71, ptr %75, align 1, !tbaa !9
  br label %79

79:                                               ; preds = %78, %73
  %indvars.iv.next = add nsw i64 %indvars.iv, 1
  %80 = add nsw i64 %74, -1
  %.not60 = icmp eq i64 %74, 0
  br i1 %.not60, label %81, label %73, !llvm.loop !38

81:                                               ; preds = %79
  %82 = trunc nsw i64 %indvars.iv.next to i32
  br label %83

83:                                               ; preds = %56, %81, %53
  %.sink = phi i64 [ 2, %56 ], [ 1, %81 ], [ 1, %53 ]
  %.2 = phi i32 [ %64, %56 ], [ %82, %81 ], [ %55, %53 ]
  %84 = getelementptr inbounds nuw i8, ptr %.05663, i64 %.sink
  %85 = icmp ult ptr %84, %48
  br i1 %85, label %.lr.ph, label %._crit_edge, !llvm.loop !39

._crit_edge:                                      ; preds = %83
  %86 = icmp eq i32 %.2, 4096
  br i1 %86, label %.loopexit, label %._crit_edge.thread

.loopexit:                                        ; preds = %24, %._crit_edge
  br label %._crit_edge.thread

._crit_edge.thread:                               ; preds = %25, %_ZN10duckdb_hllL6sdslenEPc.exit, %._crit_edge, %.loopexit
  %.1 = phi i32 [ 0, %.loopexit ], [ -1, %._crit_edge ], [ -1, %_ZN10duckdb_hllL6sdslenEPc.exit ], [ -1, %25 ]
  ret i32 %.1
}